target datalayout = "e-m:e-p270:32:32-p271:32:32-p272:64:64-i64:64-i128:128-f80:128-n8:16:32:64-S128"
target triple = "x86_64-pc-linux-gnu"

%"class.std::__cxx11::basic_string" = type { %"struct.std::__cxx11::basic_string<char>::_Alloc_hider", i64, %union.anon }
%"struct.std::__cxx11::basic_string<char>::_Alloc_hider" = type { ptr }
%union.anon = type { i64, [8 x i8] }
%"class.std::allocator.35" = type { i8 }

@_ZTISt9exception = external constant ptr
@.str.1 = private unnamed_addr constant [6 x i8] c"] at \00", align 1
@.str.3 = private unnamed_addr constant [3 x i8] c":\0A\00", align 1
@_ZTIN6casadi15CasadiExceptionE = linkonce_odr constant { ptr, ptr, ptr } { ptr getelementptr inbounds (ptr, ptr @_ZTVN10__cxxabiv120__si_class_type_infoE, i64 2), ptr @_ZTSN6casadi15CasadiExceptionE, ptr @_ZTISt9exception }, comdat, align 8
@.str.141 = private unnamed_addr constant [22 x i8] c"Error in Opti::bake [\00", align 1
@.str.142 = private unnamed_addr constant [121 x i8] c"generated/home/dtcxzyw/WorkSpace/Projects/compilers/llvm-opt-benchmark/bench/casadi/casadi/casadi/core/optistack.cpp:668\00", align 1

; Function Attrs: mustprogress uwtable
define linkonce_odr void @_ZStplIcSt11char_traitsIcESaIcEENSt7__cxx1112basic_stringIT_T0_T1_EEOS8_PKS5_(ptr dead_on_unwind noalias writable sret(%"class.std::__cxx11::basic_string") align 8 %0, ptr noundef nonnull align 8 dereferenceable(32) %1, ptr noundef %2) #4 comdat {
  %4 = alloca ptr, align 8
  %5 = alloca ptr, align 8
  %6 = alloca ptr, align 8
  store ptr %0, ptr %4, align 8
  store ptr %1, ptr %5, align 8
  store ptr %2, ptr %6, align 8
  %7 = load ptr, ptr %5, align 8
  %8 = load ptr, ptr %6, align 8
  %9 = call noundef nonnull align 8 dereferenceable(32) ptr @_ZNSt7__cxx1112basic_stringIcSt11char_traitsIcESaIcEE6appendEPKc(ptr noundef nonnull align 8 dereferenceable(32) %7, ptr noundef %8)
  call void @_ZNSt7__cxx1112basic_stringIcSt11char_traitsIcESaIcEEC1EOS4_(ptr noundef nonnull align 8 dereferenceable(32) %0, ptr noundef nonnull align 8 dereferenceable(32) %9) #3
  ret void
}

; Function Attrs: mustprogress uwtable
define linkonce_odr void @_ZStplIcSt11char_traitsIcESaIcEENSt7__cxx1112basic_stringIT_T0_T1_EEPKS5_OS8_(ptr dead_on_unwind noalias writable sret(%"class.std::__cxx11::basic_string") align 8 %0, ptr noundef %1, ptr noundef nonnull align 8 dereferenceable(32) %2) #4 comdat {
  %4 = alloca ptr, align 8
  %5 = alloca ptr, align 8
  %6 = alloca ptr, align 8
  store ptr %0, ptr %4, align 8
  store ptr %1, ptr %5, align 8
  store ptr %2, ptr %6, align 8
  %7 = load ptr, ptr %6, align 8
  %8 = load ptr, ptr %5, align 8
  %9 = call noundef nonnull align 8 dereferenceable(32) ptr @_ZNSt7__cxx1112basic_stringIcSt11char_traitsIcESaIcEE6insertEmPKc(ptr noundef nonnull align 8 dereferenceable(32) %7, i64 noundef 0, ptr noundef %8)
  call void @_ZNSt7__cxx1112basic_stringIcSt11char_traitsIcESaIcEEC1EOS4_(ptr noundef nonnull align 8 dereferenceable(32) %0, ptr noundef nonnull align 8 dereferenceable(32) %9) #3
  ret void
}

; Function Attrs: mustprogress uwtable
define noundef ptr @_ZN6casadi4OptiptEv(ptr noundef nonnull align 8 dereferenceable(8) %0) #4 align 2 {
  %2 = alloca ptr, align 8
  store ptr %0, ptr %2, align 8
  %3 = load ptr, ptr %2, align 8
  %4 = call noundef ptr @_ZNK6casadi12SharedObjectptEv(ptr noundef nonnull align 8 dereferenceable(8) %3)
  ret ptr %4
}

; Function Attrs: mustprogress uwtable
define void @_ZN6casadi12OptiAdvanced4bakeEv(ptr noundef nonnull align 8 dereferenceable(11) %0) #4 align 2 personality ptr @__gxx_personality_v0 {
  %2 = alloca ptr, align 8
  %3 = alloca ptr, align 8
  %4 = alloca i32, align 4
  %5 = alloca ptr, align 8
  %6 = alloca %"class.std::__cxx11::basic_string", align 8
  %7 = alloca %"class.std::__cxx11::basic_string", align 8
  %8 = alloca %"class.std::__cxx11::basic_string", align 8
  %9 = alloca %"class.std::__cxx11::basic_string", align 8
  %10 = alloca %"class.std::__cxx11::basic_string", align 8
  %11 = alloca %"class.std::__cxx11::basic_string", align 8
  %12 = alloca %"class.std::__cxx11::basic_string", align 8
  %13 = alloca %"class.std::__cxx11::basic_string", align 8
  %14 = alloca %"class.std::allocator.35", align 1
  %15 = alloca %"class.std::__cxx11::basic_string", align 8
  %16 = alloca %"class.std::allocator.35", align 1
  %17 = alloca i1, align 1
  store ptr %0, ptr %2, align 8
  %18 = load ptr, ptr %2, align 8
  %19 = invoke noundef ptr @_ZN6casadi4OptiptEv(ptr noundef nonnull align 8 dereferenceable(8) %18)
          to label %20 unwind label %22

20:                                               ; preds = %1
  invoke void @_ZN6casadi8OptiNode4bakeEv(ptr noundef nonnull align 8 dereferenceable(672) %19)
          to label %21 unwind label %22

21:                                               ; preds = %20
  br label %102

22:                                               ; preds = %20, %1
  %23 = landingpad { ptr, i32 }
          catch ptr @_ZTISt9exception
  %24 = extractvalue { ptr, i32 } %23, 0
  store ptr %24, ptr %3, align 8
  %25 = extractvalue { ptr, i32 } %23, 1
  store i32 %25, ptr %4, align 4
  br label %26

26:                                               ; preds = %22
  %27 = load i32, ptr %4, align 4
  %28 = call i32 @llvm.eh.typeid.for(ptr @_ZTISt9exception) #3
  %29 = icmp eq i32 %27, %28
  br i1 %29, label %30, label %103

30:                                               ; preds = %26
  %31 = load ptr, ptr %3, align 8
  %32 = call ptr @__cxa_begin_catch(ptr %31) #3
  store ptr %32, ptr %5, align 8
  store i1 true, ptr %17, align 1
  %33 = call ptr @__cxa_allocate_exception(i64 40) #3
  invoke void @_ZNK6casadi12SharedObject10class_nameB5cxx11Ev(ptr dead_on_unwind writable sret(%"class.std::__cxx11::basic_string") align 8 %11, ptr noundef nonnull align 8 dereferenceable(8) %18)
          to label %34 unwind label %49

34:                                               ; preds = %30
  invoke void @_ZStplIcSt11char_traitsIcESaIcEENSt7__cxx1112basic_stringIT_T0_T1_EEPKS5_OS8_(ptr dead_on_unwind writable sret(%"class.std::__cxx11::basic_string") align 8 %10, ptr noundef @.str.141, ptr noundef nonnull align 8 dereferenceable(32) %11)
          to label %35 unwind label %53

35:                                               ; preds = %34
  invoke void @_ZStplIcSt11char_traitsIcESaIcEENSt7__cxx1112basic_stringIT_T0_T1_EEOS8_PKS5_(ptr dead_on_unwind writable sret(%"class.std::__cxx11::basic_string") align 8 %9, ptr noundef nonnull align 8 dereferenceable(32) %10, ptr noundef @.str.1)
          to label %36 unwind label %57

36:                                               ; preds = %35
  call void @_ZNSaIcEC1Ev(ptr noundef nonnull align 1 dereferenceable(1) %14) #3
  invoke void @_ZNSt7__cxx1112basic_stringIcSt11char_traitsIcESaIcEEC2IS3_EEPKcRKS3_(ptr noundef nonnull align 8 dereferenceable(32) %13, ptr noundef @.str.142, ptr noundef nonnull align 1 dereferenceable(1) %14)
          to label %37 unwind label %61

37:                                               ; preds = %36
  invoke void @_ZN6casadi9trim_pathERKNSt7__cxx1112basic_stringIcSt11char_traitsIcESaIcEEE(ptr dead_on_unwind writable sret(%"class.std::__cxx11::basic_string") align 8 %12, ptr noundef nonnull align 8 dereferenceable(32) %13)
          to label %38 unwind label %65

38:                                               ; preds = %37
  invoke void @_ZStplIcSt11char_traitsIcESaIcEENSt7__cxx1112basic_stringIT_T0_T1_EEOS8_S9_(ptr dead_on_unwind writable sret(%"class.std::__cxx11::basic_string") align 8 %8, ptr noundef nonnull align 8 dereferenceable(32) %9, ptr noundef nonnull align 8 dereferenceable(32) %12)
          to label %39 unwind label %69

39:                                               ; preds = %38
  invoke void @_ZStplIcSt11char_traitsIcESaIcEENSt7__cxx1112basic_stringIT_T0_T1_EEOS8_PKS5_(ptr dead_on_unwind writable sret(%"class.std::__cxx11::basic_string") align 8 %7, ptr noundef nonnull align 8 dereferenceable(32) %8, ptr noundef @.str.3)
          to label %40 unwind label %73

40:                                               ; preds = %39
  %41 = load ptr, ptr %5, align 8
  %42 = load ptr, ptr %41, align 8
  %43 = getelementptr inbounds ptr, ptr %42, i64 2
  %44 = load ptr, ptr %43, align 8
  %45 = call noundef ptr %44(ptr noundef nonnull align 8 dereferenceable(8) %41) #3
  call void @_ZNSaIcEC1Ev(ptr noundef nonnull align 1 dereferenceable(1) %16) #3
  invoke void @_ZNSt7__cxx1112basic_stringIcSt11char_traitsIcESaIcEEC2IS3_EEPKcRKS3_(ptr noundef nonnull align 8 dereferenceable(32) %15, ptr noundef %45, ptr noundef nonnull align 1 dereferenceable(1) %16)
          to label %46 unwind label %77

46:                                               ; preds = %40
  invoke void @_ZStplIcSt11char_traitsIcESaIcEENSt7__cxx1112basic_stringIT_T0_T1_EEOS8_S9_(ptr dead_on_unwind writable sret(%"class.std::__cxx11::basic_string") align 8 %6, ptr noundef nonnull align 8 dereferenceable(32) %7, ptr noundef nonnull align 8 dereferenceable(32) %15)
          to label %47 unwind label %81

47:                                               ; preds = %46
  invoke void @_ZN6casadi15CasadiExceptionC2ERKNSt7__cxx1112basic_stringIcSt11char_traitsIcESaIcEEE(ptr noundef nonnull align 8 dereferenceable(40) %33, ptr noundef nonnull align 8 dereferenceable(32) %6)
          to label %48 unwind label %85

48:                                               ; preds = %47
  store i1 false, ptr %17, align 1
  invoke void @__cxa_throw(ptr %33, ptr @_ZTIN6casadi15CasadiExceptionE, ptr @_ZN6casadi15CasadiExceptionD2Ev) #15
          to label %111 unwind label %85

49:                                               ; preds = %30
  %50 = landingpad { ptr, i32 }
          cleanup
  %51 = extractvalue { ptr, i32 } %50, 0
  store ptr %51, ptr %3, align 8
  %52 = extractvalue { ptr, i32 } %50, 1
  store i32 %52, ptr %4, align 4
  br label %97

53:                                               ; preds = %34
  %54 = landingpad { ptr, i32 }
          cleanup
  %55 = extractvalue { ptr, i32 } %54, 0
  store ptr %55, ptr %3, align 8
  %56 = extractvalue { ptr, i32 } %54, 1
  store i32 %56, ptr %4, align 4
  br label %96

57:                                               ; preds = %35
  %58 = landingpad { ptr, i32 }
          cleanup
  %59 = extractvalue { ptr, i32 } %58, 0
  store ptr %59, ptr %3, align 8
  %60 = extractvalue { ptr, i32 } %58, 1
  store i32 %60, ptr %4, align 4
  br label %95

61:                                               ; preds = %36
  %62 = landingpad { ptr, i32 }
          cleanup
  %63 = extractvalue { ptr, i32 } %62, 0
  store ptr %63, ptr %3, align 8
  %64 = extractvalue { ptr, i32 } %62, 1
  store i32 %64, ptr %4, align 4
  br label %94

65:                                               ; preds = %37
  %66 = landingpad { ptr, i32 }
          cleanup
  %67 = extractvalue { ptr, i32 } %66, 0
  store ptr %67, ptr %3, align 8
  %68 = extractvalue { ptr, i32 } %66, 1
  store i32 %68, ptr %4, align 4
  br label %93

69:                                               ; preds = %38
  %70 = landingpad { ptr, i32 }
          cleanup
  %71 = extractvalue { ptr, i32 } %70, 0
  store ptr %71, ptr %3, align 8
  %72 = extractvalue { ptr, i32 } %70, 1
  store i32 %72, ptr %4, align 4
  br label %92

73:                                               ; preds = %39
  %74 = landingpad { ptr, i32 }
          cleanup
  %75 = extractvalue { ptr, i32 } %74, 0
  store ptr %75, ptr %3, align 8
  %76 = extractvalue { ptr, i32 } %74, 1
  store i32 %76, ptr %4, align 4
  br label %91

77:                                               ; preds = %40
  %78 = landingpad { ptr, i32 }
          cleanup
  %79 = extractvalue { ptr, i32 } %78, 0
  store ptr %79, ptr %3, align 8
  %80 = extractvalue { ptr, i32 } %78, 1
  store i32 %80, ptr %4, align 4
  br label %90

81:                                               ; preds = %46
  %82 = landingpad { ptr, i32 }
          cleanup
  %83 = extractvalue { ptr, i32 } %82, 0
  store ptr %83, ptr %3, align 8
  %84 = extractvalue { ptr, i32 } %82, 1
  store i32 %84, ptr %4, align 4
  br label %89

85:                                               ; preds = %48, %47
  %86 = landingpad { ptr, i32 }
          cleanup
  %87 = extractvalue { ptr, i32 } %86, 0
  store ptr %87, ptr %3, align 8
  %88 = extractvalue { ptr, i32 } %86, 1
  store i32 %88, ptr %4, align 4
  call void @_ZNSt7__cxx1112basic_stringIcSt11char_traitsIcESaIcEED1Ev(ptr noundef nonnull align 8 dereferenceable(32) %6) #3
  br label %89

89:                                               ; preds = %85, %81
  call void @_ZNSt7__cxx1112basic_stringIcSt11char_traitsIcESaIcEED1Ev(ptr noundef nonnull align 8 dereferenceable(32) %15) #3
  br label %90

90:                                               ; preds = %89, %77
  call void @_ZNSaIcED1Ev(ptr noundef nonnull align 1 dereferenceable(1) %16) #3
  call void @_ZNSt7__cxx1112basic_stringIcSt11char_traitsIcESaIcEED1Ev(ptr noundef nonnull align 8 dereferenceable(32) %7) #3
  br label %91

91:                                               ; preds = %90, %73
  call void @_ZNSt7__cxx1112basic_stringIcSt11char_traitsIcESaIcEED1Ev(ptr noundef nonnull align 8 dereferenceable(32) %8) #3
  br label %92

92:                                               ; preds = %91, %69
  call void @_ZNSt7__cxx1112basic_stringIcSt11char_traitsIcESaIcEED1Ev(ptr noundef nonnull align 8 dereferenceable(32) %12) #3
  br label %93

93:                                               ; preds = %92, %65
  call void @_ZNSt7__cxx1112basic_stringIcSt11char_traitsIcESaIcEED1Ev(ptr noundef nonnull align 8 dereferenceable(32) %13) #3
  br label %94

94:                                               ; preds = %93, %61
  call void @_ZNSaIcED1Ev(ptr noundef nonnull align 1 dereferenceable(1) %14) #3
  call void @_ZNSt7__cxx1112basic_stringIcSt11char_traitsIcESaIcEED1Ev(ptr noundef nonnull align 8 dereferenceable(32) %9) #3
  br label %95

95:                                               ; preds = %94, %57
  call void @_ZNSt7__cxx1112basic_stringIcSt11char_traitsIcESaIcEED1Ev(ptr noundef nonnull align 8 dereferenceable(32) %10) #3
  br label %96

96:                                               ; preds = %95, %53
  call void @_ZNSt7__cxx1112basic_stringIcSt11char_traitsIcESaIcEED1Ev(ptr noundef nonnull align 8 dereferenceable(32) %11) #3
  br label %97

97:                                               ; preds = %96, %49
  %98 = load i1, ptr %17, align 1
  br i1 %98, label %99, label %100

99:                                               ; preds = %97
  call void @__cxa_free_exception(ptr %33) #3
  br label %100

100:                                              ; preds = %99, %97
  invoke void @__cxa_end_catch()
          to label %101 unwind label %108

101:                                              ; preds = %100
  br label %103

102:                                              ; preds = %21
  ret void

103:                                              ; preds = %101, %26
  %104 = load ptr, ptr %3, align 8
  %105 = load i32, ptr %4, align 4
  %106 = insertvalue { ptr, i32 } poison, ptr %104, 0
  %107 = insertvalue { ptr, i32 } %106, i32 %105, 1
  resume { ptr, i32 } %107

108:                                              ; preds = %100
  %109 = landingpad { ptr, i32 }
          catch ptr null
  %110 = extractvalue { ptr, i32 } %109, 0
  call void @__clang_call_terminate(ptr %110) #16
  unreachable

111:                                              ; preds = %48
  unreachable
}