; Function Attrs: mustprogress uwtable
define void @_ZN6casadi12OptiAdvanced4bakeEv(ptr noundef nonnull align 8 dereferenceable(11) %0) local_unnamed_addr #3 align 2 personality ptr @__gxx_personality_v0 {
  %2 = alloca %"class.std::__cxx11::basic_string", align 8
  %3 = alloca %"class.std::__cxx11::basic_string", align 8
  %4 = alloca %"class.std::__cxx11::basic_string", align 8
  %5 = alloca %"class.std::__cxx11::basic_string", align 8
  %6 = alloca %"class.std::__cxx11::basic_string", align 8
  %7 = alloca %"class.std::__cxx11::basic_string", align 8
  %8 = alloca %"class.std::__cxx11::basic_string", align 8
  %9 = alloca %"class.std::__cxx11::basic_string", align 8
  %10 = alloca %"class.std::allocator.35", align 1
  %11 = alloca %"class.std::__cxx11::basic_string", align 8
  %12 = alloca %"class.std::allocator.35", align 1
  %13 = invoke noundef ptr @_ZNK6casadi12SharedObjectptEv(ptr noundef nonnull align 8 dereferenceable(8) %0)
          to label %_ZN6casadi4OptiptEv.exit unwind label %14

_ZN6casadi4OptiptEv.exit:                         ; preds = %1
  invoke void @_ZN6casadi8OptiNode4bakeEv(ptr noundef nonnull align 8 dereferenceable(672) %13)
          to label %67 unwind label %14

14:                                               ; preds = %1, %_ZN6casadi4OptiptEv.exit
  %15 = landingpad { ptr, i32 }
          catch ptr @_ZTISt9exception
  %16 = extractvalue { ptr, i32 } %15, 1
  %17 = tail call i32 @llvm.eh.typeid.for(ptr nonnull @_ZTISt9exception) #17
  %18 = icmp eq i32 %16, %17
  br i1 %18, label %19, label %68

19:                                               ; preds = %14
  %20 = extractvalue { ptr, i32 } %15, 0
  %21 = tail call ptr @__cxa_begin_catch(ptr %20) #17
  %22 = tail call ptr @__cxa_allocate_exception(i64 40) #17
  invoke void @_ZNK6casadi12SharedObject10class_nameB5cxx11Ev(ptr dead_on_unwind nonnull writable sret(%"class.std::__cxx11::basic_string") align 8 %7, ptr noundef nonnull align 8 dereferenceable(8) %0)
          to label %23 unwind label %.thread

23:                                               ; preds = %19
  %24 = invoke noundef nonnull align 8 dereferenceable(32) ptr @_ZNSt7__cxx1112basic_stringIcSt11char_traitsIcESaIcEE6insertEmPKc(ptr noundef nonnull align 8 dereferenceable(32) %7, i64 noundef 0, ptr noundef nonnull @.str.141)
          to label %25 unwind label %.thread41

25:                                               ; preds = %23
  call void @_ZNSt7__cxx1112basic_stringIcSt11char_traitsIcESaIcEEC1EOS4_(ptr noundef nonnull align 8 dereferenceable(32) %6, ptr noundef nonnull align 8 dereferenceable(32) %24) #17
  %26 = invoke noundef nonnull align 8 dereferenceable(32) ptr @_ZNSt7__cxx1112basic_stringIcSt11char_traitsIcESaIcEE6appendEPKc(ptr noundef nonnull align 8 dereferenceable(32) %6, ptr noundef nonnull @.str.1)
          to label %27 unwind label %42

27:                                               ; preds = %25
  call void @_ZNSt7__cxx1112basic_stringIcSt11char_traitsIcESaIcEEC1EOS4_(ptr noundef nonnull align 8 dereferenceable(32) %5, ptr noundef nonnull align 8 dereferenceable(32) %26) #17
  call void @_ZNSaIcEC1Ev(ptr noundef nonnull align 1 dereferenceable(1) %10) #17
  invoke void @_ZNSt7__cxx1112basic_stringIcSt11char_traitsIcESaIcEEC2IS3_EEPKcRKS3_(ptr noundef nonnull align 8 dereferenceable(32) %9, ptr noundef nonnull @.str.142, ptr noundef nonnull align 1 dereferenceable(1) %10)
          to label %28 unwind label %44

28:                                               ; preds = %27
  invoke void @_ZN6casadi9trim_pathERKNSt7__cxx1112basic_stringIcSt11char_traitsIcESaIcEEE(ptr dead_on_unwind nonnull writable sret(%"class.std::__cxx11::basic_string") align 8 %8, ptr noundef nonnull align 8 dereferenceable(32) %9)
          to label %29 unwind label %46

29:                                               ; preds = %28
  invoke void @_ZStplIcSt11char_traitsIcESaIcEENSt7__cxx1112basic_stringIT_T0_T1_EEOS8_S9_(ptr dead_on_unwind nonnull writable sret(%"class.std::__cxx11::basic_string") align 8 %4, ptr noundef nonnull align 8 dereferenceable(32) %5, ptr noundef nonnull align 8 dereferenceable(32) %8)
          to label %30 unwind label %48

30:                                               ; preds = %29
  %31 = invoke noundef nonnull align 8 dereferenceable(32) ptr @_ZNSt7__cxx1112basic_stringIcSt11char_traitsIcESaIcEE6appendEPKc(ptr noundef nonnull align 8 dereferenceable(32) %4, ptr noundef nonnull @.str.3)
          to label %32 unwind label %50

32:                                               ; preds = %30
  call void @_ZNSt7__cxx1112basic_stringIcSt11char_traitsIcESaIcEEC1EOS4_(ptr noundef nonnull align 8 dereferenceable(32) %3, ptr noundef nonnull align 8 dereferenceable(32) %31) #17
  %33 = load ptr, ptr %21, align 8
  %34 = getelementptr inbounds i8, ptr %33, i64 16
  %35 = load ptr, ptr %34, align 8
  %36 = call noundef ptr %35(ptr noundef nonnull align 8 dereferenceable(8) %21) #17
  call void @_ZNSaIcEC1Ev(ptr noundef nonnull align 1 dereferenceable(1) %12) #17
  invoke void @_ZNSt7__cxx1112basic_stringIcSt11char_traitsIcESaIcEEC2IS3_EEPKcRKS3_(ptr noundef nonnull align 8 dereferenceable(32) %11, ptr noundef %36, ptr noundef nonnull align 1 dereferenceable(1) %12)
          to label %37 unwind label %52

37:                                               ; preds = %32
  invoke void @_ZStplIcSt11char_traitsIcESaIcEENSt7__cxx1112basic_stringIT_T0_T1_EEOS8_S9_(ptr dead_on_unwind nonnull writable sret(%"class.std::__cxx11::basic_string") align 8 %2, ptr noundef nonnull align 8 dereferenceable(32) %3, ptr noundef nonnull align 8 dereferenceable(32) %11)
          to label %38 unwind label %54

38:                                               ; preds = %37
  invoke void @_ZN6casadi15CasadiExceptionC2ERKNSt7__cxx1112basic_stringIcSt11char_traitsIcESaIcEEE(ptr noundef nonnull align 8 dereferenceable(40) %22, ptr noundef nonnull align 8 dereferenceable(32) %2)
          to label %39 unwind label %56

39:                                               ; preds = %38
  invoke void @__cxa_throw(ptr nonnull %22, ptr nonnull @_ZTIN6casadi15CasadiExceptionE, ptr nonnull @_ZN6casadi15CasadiExceptionD2Ev) #18
          to label %72 unwind label %56

.thread:                                          ; preds = %19
  %40 = landingpad { ptr, i32 }
          cleanup
  br label %65

.thread41:                                        ; preds = %23
  %41 = landingpad { ptr, i32 }
          cleanup
  call void @_ZNSt7__cxx1112basic_stringIcSt11char_traitsIcESaIcEED1Ev(ptr noundef nonnull align 8 dereferenceable(32) %7) #17
  br label %65

42:                                               ; preds = %25
  %43 = landingpad { ptr, i32 }
          cleanup
  br label %64

44:                                               ; preds = %27
  %45 = landingpad { ptr, i32 }
          cleanup
  br label %63

46:                                               ; preds = %28
  %47 = landingpad { ptr, i32 }
          cleanup
  br label %62

48:                                               ; preds = %29
  %49 = landingpad { ptr, i32 }
          cleanup
  br label %61

50:                                               ; preds = %30
  %51 = landingpad { ptr, i32 }
          cleanup
  br label %60

52:                                               ; preds = %32
  %53 = landingpad { ptr, i32 }
          cleanup
  br label %59

54:                                               ; preds = %37
  %55 = landingpad { ptr, i32 }
          cleanup
  br label %58

56:                                               ; preds = %39, %38
  %.0 = phi i1 [ false, %39 ], [ true, %38 ]
  %57 = landingpad { ptr, i32 }
          cleanup
  call void @_ZNSt7__cxx1112basic_stringIcSt11char_traitsIcESaIcEED1Ev(ptr noundef nonnull align 8 dereferenceable(32) %2) #17
  br label %58

58:                                               ; preds = %56, %54
  %.pn = phi { ptr, i32 } [ %57, %56 ], [ %55, %54 ]
  %.1 = phi i1 [ %.0, %56 ], [ true, %54 ]
  call void @_ZNSt7__cxx1112basic_stringIcSt11char_traitsIcESaIcEED1Ev(ptr noundef nonnull align 8 dereferenceable(32) %11) #17
  br label %59

59:                                               ; preds = %58, %52
  %.pn.pn = phi { ptr, i32 } [ %.pn, %58 ], [ %53, %52 ]
  %.2 = phi i1 [ %.1, %58 ], [ true, %52 ]
  call void @_ZNSaIcED1Ev(ptr noundef nonnull align 1 dereferenceable(1) %12) #17
  call void @_ZNSt7__cxx1112basic_stringIcSt11char_traitsIcESaIcEED1Ev(ptr noundef nonnull align 8 dereferenceable(32) %3) #17
  br label %60

60:                                               ; preds = %59, %50
  %.pn.pn.pn = phi { ptr, i32 } [ %.pn.pn, %59 ], [ %51, %50 ]
  %.3 = phi i1 [ %.2, %59 ], [ true, %50 ]
  call void @_ZNSt7__cxx1112basic_stringIcSt11char_traitsIcESaIcEED1Ev(ptr noundef nonnull align 8 dereferenceable(32) %4) #17
  br label %61

61:                                               ; preds = %60, %48
  %.pn.pn.pn.pn = phi { ptr, i32 } [ %.pn.pn.pn, %60 ], [ %49, %48 ]
  %.4 = phi i1 [ %.3, %60 ], [ true, %48 ]
  call void @_ZNSt7__cxx1112basic_stringIcSt11char_traitsIcESaIcEED1Ev(ptr noundef nonnull align 8 dereferenceable(32) %8) #17
  br label %62

62:                                               ; preds = %61, %46
  %.pn.pn.pn.pn.pn = phi { ptr, i32 } [ %.pn.pn.pn.pn, %61 ], [ %47, %46 ]
  %.5 = phi i1 [ %.4, %61 ], [ true, %46 ]
  call void @_ZNSt7__cxx1112basic_stringIcSt11char_traitsIcESaIcEED1Ev(ptr noundef nonnull align 8 dereferenceable(32) %9) #17
  br label %63

63:                                               ; preds = %62, %44
  %.pn.pn.pn.pn.pn.pn = phi { ptr, i32 } [ %.pn.pn.pn.pn.pn, %62 ], [ %45, %44 ]
  %.6 = phi i1 [ %.5, %62 ], [ true, %44 ]
  call void @_ZNSaIcED1Ev(ptr noundef nonnull align 1 dereferenceable(1) %10) #17
  call void @_ZNSt7__cxx1112basic_stringIcSt11char_traitsIcESaIcEED1Ev(ptr noundef nonnull align 8 dereferenceable(32) %5) #17
  br label %64

64:                                               ; preds = %42, %63
  %.pn.pn.pn.pn.pn.pn.pn = phi { ptr, i32 } [ %.pn.pn.pn.pn.pn.pn, %63 ], [ %43, %42 ]
  %.7 = phi i1 [ %.6, %63 ], [ true, %42 ]
  call void @_ZNSt7__cxx1112basic_stringIcSt11char_traitsIcESaIcEED1Ev(ptr noundef nonnull align 8 dereferenceable(32) %6) #17
  call void @_ZNSt7__cxx1112basic_stringIcSt11char_traitsIcESaIcEED1Ev(ptr noundef nonnull align 8 dereferenceable(32) %7) #17
  br i1 %.7, label %65, label %66

65:                                               ; preds = %.thread41, %.thread, %64
  %.pn.pn.pn.pn.pn.pn.pn.pn.pn40 = phi { ptr, i32 } [ %40, %.thread ], [ %.pn.pn.pn.pn.pn.pn.pn, %64 ], [ %41, %.thread41 ]
  call void @__cxa_free_exception(ptr %22) #17
  br label %66

66:                                               ; preds = %65, %64
  %.pn.pn.pn.pn.pn.pn.pn.pn.pn39 = phi { ptr, i32 } [ %.pn.pn.pn.pn.pn.pn.pn.pn.pn40, %65 ], [ %.pn.pn.pn.pn.pn.pn.pn, %64 ]
  invoke void @__cxa_end_catch()
          to label %68 unwind label %69

67:                                               ; preds = %_ZN6casadi4OptiptEv.exit
  ret void

68:                                               ; preds = %66, %14
  %.merged = phi { ptr, i32 } [ %.pn.pn.pn.pn.pn.pn.pn.pn.pn39, %66 ], [ %15, %14 ]
  resume { ptr, i32 } %.merged

69:                                               ; preds = %66
  %70 = landingpad { ptr, i32 }
          catch ptr null
  %71 = extractvalue { ptr, i32 } %70, 0
  call void @__clang_call_terminate(ptr %71) #19
  unreachable

72:                                               ; preds = %39
  unreachable
}